; ModuleID = '19/2831.c'
source_filename = "19/2831.c"
target datalayout = "e-m:e-p270:32:32-p271:32:32-p272:64:64-i64:64-f80:128-n8:16:32:64-S128"
target triple = "x86_64-pc-linux-gnu"

@.str = private unnamed_addr constant [3 x i8] c"%s\00", align 1
@.str.1 = private unnamed_addr constant [5 x i8] c"%s%s\00", align 1
@.str.2 = private unnamed_addr constant [2 x i8] c" \00", align 1

; Function Attrs: noinline nounwind uwtable
define dso_local void @main() #0 {
  %1 = alloca i32, align 4
  %2 = alloca i32, align 4
  %3 = alloca [20 x [20 x i8]], align 16
  %4 = alloca [20 x i8]*, align 8
  %5 = alloca [20 x i8], align 16
  %6 = alloca [20 x i8], align 16
  store i32 1, i32* %1, align 4
  %7 = getelementptr inbounds [20 x [20 x i8]], [20 x [20 x i8]]* %3, i64 0, i64 0
  store [20 x i8]* %7, [20 x i8]** %4, align 8
  %8 = load [20 x i8]*, [20 x i8]** %4, align 8
  %9 = call i32 (i8*, ...) @__isoc99_scanf(i8* getelementptr inbounds ([3 x i8], [3 x i8]* @.str, i64 0, i64 0), [20 x i8]* %8)
  br label %10

10:                                               ; preds = %13, %0
  %11 = call i32 @getchar()
  %12 = icmp ne i32 %11, 10
  br i1 %12, label %13, label %21

13:                                               ; preds = %10
  %14 = load [20 x i8]*, [20 x i8]** %4, align 8
  %15 = load i32, i32* %1, align 4
  %16 = sext i32 %15 to i64
  %17 = getelementptr inbounds [20 x i8], [20 x i8]* %14, i64 %16
  %18 = call i32 (i8*, ...) @__isoc99_scanf(i8* getelementptr inbounds ([3 x i8], [3 x i8]* @.str, i64 0, i64 0), [20 x i8]* %17)
  %19 = load i32, i32* %1, align 4
  %20 = add nsw i32 %19, 1
  store i32 %20, i32* %1, align 4
  br label %10

21:                                               ; preds = %10
  %22 = getelementptr inbounds [20 x i8], [20 x i8]* %5, i64 0, i64 0
  %23 = getelementptr inbounds [20 x i8], [20 x i8]* %6, i64 0, i64 0
  %24 = call i32 (i8*, ...) @__isoc99_scanf(i8* getelementptr inbounds ([5 x i8], [5 x i8]* @.str.1, i64 0, i64 0), i8* %22, i8* %23)
  store i32 0, i32* %2, align 4
  br label %25

25:                                               ; preds = %55, %21
  %26 = load i32, i32* %2, align 4
  %27 = load i32, i32* %1, align 4
  %28 = icmp slt i32 %26, %27
  br i1 %28, label %29, label %58

29:                                               ; preds = %25
  %30 = load [20 x i8]*, [20 x i8]** %4, align 8
  %31 = load i32, i32* %2, align 4
  %32 = sext i32 %31 to i64
  %33 = getelementptr inbounds [20 x i8], [20 x i8]* %30, i64 %32
  %34 = bitcast [20 x i8]* %33 to i8*
  %35 = getelementptr inbounds [20 x i8], [20 x i8]* %5, i64 0, i64 0
  %36 = call i32 @strcmp(i8* %34, i8* %35) #3
  %37 = icmp eq i32 %36, 0
  br i1 %37, label %38, label %41

38:                                               ; preds = %29
  %39 = getelementptr inbounds [20 x i8], [20 x i8]* %6, i64 0, i64 0
  %40 = call i32 (i8*, ...) @printf(i8* getelementptr inbounds ([3 x i8], [3 x i8]* @.str, i64 0, i64 0), i8* %39)
  br label %47

41:                                               ; preds = %29
  %42 = load [20 x i8]*, [20 x i8]** %4, align 8
  %43 = load i32, i32* %2, align 4
  %44 = sext i32 %43 to i64
  %45 = getelementptr inbounds [20 x i8], [20 x i8]* %42, i64 %44
  %46 = call i32 (i8*, ...) @printf(i8* getelementptr inbounds ([3 x i8], [3 x i8]* @.str, i64 0, i64 0), [20 x i8]* %45)
  br label %47

47:                                               ; preds = %41, %38
  %48 = load i32, i32* %2, align 4
  %49 = load i32, i32* %1, align 4
  %50 = sub nsw i32 %49, 1
  %51 = icmp ne i32 %48, %50
  br i1 %51, label %52, label %54

52:                                               ; preds = %47
  %53 = call i32 (i8*, ...) @printf(i8* getelementptr inbounds ([2 x i8], [2 x i8]* @.str.2, i64 0, i64 0))
  br label %54

54:                                               ; preds = %52, %47
  br label %55

55:                                               ; preds = %54
  %56 = load i32, i32* %2, align 4
  %57 = add nsw i32 %56, 1
  store i32 %57, i32* %2, align 4
  br label %25

58:                                               ; preds = %25
  ret void
}

declare dso_local i32 @__isoc99_scanf(i8*, ...) #1

declare dso_local i32 @getchar() #1

; Function Attrs: nounwind readonly
declare dso_local i32 @strcmp(i8*, i8*) #2

declare dso_local i32 @printf(i8*, ...) #1


!llvm.module.flags = !{!0}
!llvm.ident = !{!1}

!0 = !{i32 1, !"wchar_size", i32 4}
!1 = !{!"clang version 10.0.0-4ubuntu1 "}
